; ModuleID = '40/1717.c'
source_filename = "40/1717.c"
target datalayout = "e-m:e-p270:32:32-p271:32:32-p272:64:64-i64:64-f80:128-n8:16:32:64-S128"
target triple = "x86_64-pc-linux-gnu"

@.str = private unnamed_addr constant [4 x i8] c"%lf\00", align 1
@.str.1 = private unnamed_addr constant [14 x i8] c"Invalid input\00", align 1
@.str.2 = private unnamed_addr constant [5 x i8] c"%.4f\00", align 1

; Function Attrs: noinline nounwind uwtable
define dso_local i32 @main() #0 {
  %1 = alloca i32, align 4
  %2 = alloca double, align 8
  %3 = alloca double, align 8
  %4 = alloca double, align 8
  %5 = alloca double, align 8
  %6 = alloca double, align 8
  %7 = alloca double, align 8
  %8 = alloca double, align 8
  %9 = alloca double, align 8
  %10 = alloca double, align 8
  store i32 0, i32* %1, align 4
  %11 = call i32 (i8*, ...) @__isoc99_scanf(i8* getelementptr inbounds ([4 x i8], [4 x i8]* @.str, i64 0, i64 0), double* %2)
  %12 = call i32 (i8*, ...) @__isoc99_scanf(i8* getelementptr inbounds ([4 x i8], [4 x i8]* @.str, i64 0, i64 0), double* %3)
  %13 = call i32 (i8*, ...) @__isoc99_scanf(i8* getelementptr inbounds ([4 x i8], [4 x i8]* @.str, i64 0, i64 0), double* %4)
  %14 = call i32 (i8*, ...) @__isoc99_scanf(i8* getelementptr inbounds ([4 x i8], [4 x i8]* @.str, i64 0, i64 0), double* %5)
  %15 = call i32 (i8*, ...) @__isoc99_scanf(i8* getelementptr inbounds ([4 x i8], [4 x i8]* @.str, i64 0, i64 0), double* %6)
  %16 = load double, double* %6, align 8
  %17 = fmul double 0x400921FB4D12D84A, %16
  %18 = fdiv double %17, 1.800000e+02
  store double %18, double* %7, align 8
  %19 = load double, double* %2, align 8
  %20 = load double, double* %3, align 8
  %21 = fadd double %19, %20
  %22 = load double, double* %4, align 8
  %23 = fadd double %21, %22
  %24 = load double, double* %5, align 8
  %25 = fadd double %23, %24
  %26 = fdiv double %25, 2.000000e+00
  store double %26, double* %8, align 8
  %27 = load double, double* %8, align 8
  %28 = load double, double* %2, align 8
  %29 = fsub double %27, %28
  %30 = load double, double* %8, align 8
  %31 = load double, double* %3, align 8
  %32 = fsub double %30, %31
  %33 = fmul double %29, %32
  %34 = load double, double* %8, align 8
  %35 = load double, double* %4, align 8
  %36 = fsub double %34, %35
  %37 = fmul double %33, %36
  %38 = load double, double* %8, align 8
  %39 = load double, double* %5, align 8
  %40 = fsub double %38, %39
  %41 = fmul double %37, %40
  %42 = load double, double* %2, align 8
  %43 = load double, double* %3, align 8
  %44 = fmul double %42, %43
  %45 = load double, double* %4, align 8
  %46 = fmul double %44, %45
  %47 = load double, double* %5, align 8
  %48 = fmul double %46, %47
  %49 = load double, double* %7, align 8
  %50 = fdiv double %49, 2.000000e+00
  %51 = call double @cos(double %50) #3
  %52 = fmul double %48, %51
  %53 = load double, double* %7, align 8
  %54 = fdiv double %53, 2.000000e+00
  %55 = call double @cos(double %54) #3
  %56 = fmul double %52, %55
  %57 = fsub double %41, %56
  store double %57, double* %10, align 8
  %58 = load double, double* %10, align 8
  %59 = fcmp ole double %58, 0.000000e+00
  br i1 %59, label %60, label %62

60:                                               ; preds = %0
  %61 = call i32 (i8*, ...) @printf(i8* getelementptr inbounds ([14 x i8], [14 x i8]* @.str.1, i64 0, i64 0))
  br label %97

62:                                               ; preds = %0
  %63 = load double, double* %8, align 8
  %64 = load double, double* %2, align 8
  %65 = fsub double %63, %64
  %66 = load double, double* %8, align 8
  %67 = load double, double* %3, align 8
  %68 = fsub double %66, %67
  %69 = fmul double %65, %68
  %70 = load double, double* %8, align 8
  %71 = load double, double* %4, align 8
  %72 = fsub double %70, %71
  %73 = fmul double %69, %72
  %74 = load double, double* %8, align 8
  %75 = load double, double* %5, align 8
  %76 = fsub double %74, %75
  %77 = fmul double %73, %76
  %78 = load double, double* %2, align 8
  %79 = load double, double* %3, align 8
  %80 = fmul double %78, %79
  %81 = load double, double* %4, align 8
  %82 = fmul double %80, %81
  %83 = load double, double* %5, align 8
  %84 = fmul double %82, %83
  %85 = load double, double* %7, align 8
  %86 = fdiv double %85, 2.000000e+00
  %87 = call double @cos(double %86) #3
  %88 = fmul double %84, %87
  %89 = load double, double* %7, align 8
  %90 = fdiv double %89, 2.000000e+00
  %91 = call double @cos(double %90) #3
  %92 = fmul double %88, %91
  %93 = fsub double %77, %92
  %94 = call double @sqrt(double %93) #3
  store double %94, double* %9, align 8
  %95 = load double, double* %9, align 8
  %96 = call i32 (i8*, ...) @printf(i8* getelementptr inbounds ([5 x i8], [5 x i8]* @.str.2, i64 0, i64 0), double %95)
  br label %97

97:                                               ; preds = %62, %60
  ret i32 0
}

declare dso_local i32 @__isoc99_scanf(i8*, ...) #1

; Function Attrs: nounwind
declare dso_local double @cos(double) #2

declare dso_local i32 @printf(i8*, ...) #1

; Function Attrs: nounwind
declare dso_local double @sqrt(double) #2


!llvm.module.flags = !{!0}
!llvm.ident = !{!1}

!0 = !{i32 1, !"wchar_size", i32 4}
!1 = !{!"clang version 10.0.0-4ubuntu1 "}
