; ModuleID = 'source-C-CXX/39/1717.c'
source_filename = "source-C-CXX/39/1717.c"
target datalayout = "e-m:e-p270:32:32-p271:32:32-p272:64:64-i64:64-f80:128-n8:16:32:64-S128"
target triple = "x86_64-pc-linux-gnu"

@.str = private unnamed_addr constant [4 x i8] c"%lf\00", align 1
@.str.1 = private unnamed_addr constant [14 x i8] c"Invalid input\00", align 1
@.str.2 = private unnamed_addr constant [5 x i8] c"%.4f\00", align 1

; Function Attrs: nofree nounwind sspstrong uwtable
define dso_local i32 @main() local_unnamed_addr #0 {
  %1 = alloca double, align 8
  %2 = alloca double, align 8
  %3 = alloca double, align 8
  %4 = alloca double, align 8
  %5 = alloca double, align 8
  %6 = bitcast double* %1 to i8*
  call void @llvm.lifetime.start.p0i8(i64 8, i8* nonnull %6) #4
  %7 = bitcast double* %2 to i8*
  call void @llvm.lifetime.start.p0i8(i64 8, i8* nonnull %7) #4
  %8 = bitcast double* %3 to i8*
  call void @llvm.lifetime.start.p0i8(i64 8, i8* nonnull %8) #4
  %9 = bitcast double* %4 to i8*
  call void @llvm.lifetime.start.p0i8(i64 8, i8* nonnull %9) #4
  %10 = bitcast double* %5 to i8*
  call void @llvm.lifetime.start.p0i8(i64 8, i8* nonnull %10) #4
  %11 = call i32 (i8*, ...) @__isoc99_scanf(i8* getelementptr inbounds ([4 x i8], [4 x i8]* @.str, i64 0, i64 0), double* nonnull %1)
  %12 = call i32 (i8*, ...) @__isoc99_scanf(i8* getelementptr inbounds ([4 x i8], [4 x i8]* @.str, i64 0, i64 0), double* nonnull %2)
  %13 = call i32 (i8*, ...) @__isoc99_scanf(i8* getelementptr inbounds ([4 x i8], [4 x i8]* @.str, i64 0, i64 0), double* nonnull %3)
  %14 = call i32 (i8*, ...) @__isoc99_scanf(i8* getelementptr inbounds ([4 x i8], [4 x i8]* @.str, i64 0, i64 0), double* nonnull %4)
  %15 = call i32 (i8*, ...) @__isoc99_scanf(i8* getelementptr inbounds ([4 x i8], [4 x i8]* @.str, i64 0, i64 0), double* nonnull %5)
  %16 = load double, double* %5, align 8, !tbaa !5
  %17 = fmul double %16, 0x400921FB4D12D84A
  %18 = fdiv double %17, 1.800000e+02
  %19 = load double, double* %1, align 8, !tbaa !5
  %20 = load double, double* %2, align 8, !tbaa !5
  %21 = fadd double %19, %20
  %22 = load double, double* %3, align 8, !tbaa !5
  %23 = fadd double %21, %22
  %24 = load double, double* %4, align 8, !tbaa !5
  %25 = fadd double %23, %24
  %26 = fmul double %25, 5.000000e-01
  %27 = fsub double %26, %19
  %28 = fsub double %26, %20
  %29 = fmul double %27, %28
  %30 = fsub double %26, %22
  %31 = fmul double %30, %29
  %32 = fsub double %26, %24
  %33 = fmul double %32, %31
  %34 = fmul double %19, %20
  %35 = fmul double %34, %22
  %36 = fmul double %35, %24
  %37 = fmul double %18, 5.000000e-01
  %38 = call double @cos(double %37) #4
  %39 = fmul double %36, %38
  %40 = call double @cos(double %37) #4
  %41 = fmul double %39, %40
  %42 = fsub double %33, %41
  %43 = fcmp ugt double %42, 0.000000e+00
  br i1 %43, label %46, label %44

44:                                               ; preds = %0
  %45 = call i32 (i8*, ...) @printf(i8* nonnull dereferenceable(1) getelementptr inbounds ([14 x i8], [14 x i8]* @.str.1, i64 0, i64 0))
  br label %68

46:                                               ; preds = %0
  %47 = load double, double* %1, align 8, !tbaa !5
  %48 = fsub double %26, %47
  %49 = load double, double* %2, align 8, !tbaa !5
  %50 = fsub double %26, %49
  %51 = fmul double %48, %50
  %52 = load double, double* %3, align 8, !tbaa !5
  %53 = fsub double %26, %52
  %54 = fmul double %51, %53
  %55 = load double, double* %4, align 8, !tbaa !5
  %56 = fsub double %26, %55
  %57 = fmul double %54, %56
  %58 = fmul double %47, %49
  %59 = fmul double %58, %52
  %60 = fmul double %59, %55
  %61 = call double @cos(double %37) #4
  %62 = fmul double %60, %61
  %63 = call double @cos(double %37) #4
  %64 = fmul double %62, %63
  %65 = fsub double %57, %64
  %66 = call double @sqrt(double %65) #4
  %67 = call i32 (i8*, ...) @printf(i8* nonnull dereferenceable(1) getelementptr inbounds ([5 x i8], [5 x i8]* @.str.2, i64 0, i64 0), double %66)
  br label %68

68:                                               ; preds = %46, %44
  call void @llvm.lifetime.end.p0i8(i64 8, i8* nonnull %10) #4
  call void @llvm.lifetime.end.p0i8(i64 8, i8* nonnull %9) #4
  call void @llvm.lifetime.end.p0i8(i64 8, i8* nonnull %8) #4
  call void @llvm.lifetime.end.p0i8(i64 8, i8* nonnull %7) #4
  call void @llvm.lifetime.end.p0i8(i64 8, i8* nonnull %6) #4
  ret i32 0
}

; Function Attrs: argmemonly mustprogress nofree nosync nounwind willreturn
declare void @llvm.lifetime.start.p0i8(i64 immarg, i8* nocapture) #1

; Function Attrs: nofree nounwind
declare noundef i32 @__isoc99_scanf(i8* nocapture noundef readonly, ...) local_unnamed_addr #2

; Function Attrs: mustprogress nofree nounwind willreturn
declare double @cos(double) local_unnamed_addr #3

; Function Attrs: nofree nounwind
declare noundef i32 @printf(i8* nocapture noundef readonly, ...) local_unnamed_addr #2

; Function Attrs: mustprogress nofree nounwind willreturn
declare double @sqrt(double) local_unnamed_addr #3

; Function Attrs: argmemonly mustprogress nofree nosync nounwind willreturn
declare void @llvm.lifetime.end.p0i8(i64 immarg, i8* nocapture) #1


!llvm.module.flags = !{!0, !1, !2, !3}
!llvm.ident = !{!4}

!0 = !{i32 1, !"wchar_size", i32 4}
!1 = !{i32 7, !"PIC Level", i32 2}
!2 = !{i32 7, !"PIE Level", i32 2}
!3 = !{i32 7, !"uwtable", i32 1}
!4 = !{!"clang version 13.0.0"}
!5 = !{!6, !6, i64 0}
!6 = !{!"double", !7, i64 0}
!7 = !{!"omnipotent char", !8, i64 0}
!8 = !{!"Simple C/C++ TBAA"}
